; Function Attrs: mustprogress uwtable
define noundef zeroext i1 @_ZN32pxrInternal_v0_24__pxrReserved__15UsdGeomCylinder13ComputeExtentEddRKNS_7TfTokenERKNS_10GfMatrix4dEPNS_7VtArrayINS_7GfVec3fEEE(double noundef %0, double noundef %1, ptr nocapture noundef nonnull readonly align 8 dereferenceable(8) %2, ptr noundef nonnull align 8 dereferenceable(128) %3, ptr noundef nonnull %4) local_unnamed_addr #8 align 2 {
  %6 = alloca %"class.pxrInternal_v0_24__pxrReserved__::GfVec3f", align 4
  %7 = alloca %"class.pxrInternal_v0_24__pxrReserved__::GfBBox3d", align 8
  %8 = alloca %"class.pxrInternal_v0_24__pxrReserved__::GfRange3d", align 8
  tail call void @_ZN32pxrInternal_v0_24__pxrReserved__7VtArrayINS_7GfVec3fEE6resizeEm(ptr noundef nonnull align 8 dereferenceable(40) %4, i64 noundef 2)
  %9 = call fastcc noundef zeroext i1 @_ZN32pxrInternal_v0_24__pxrReserved__L17_ComputeExtentMaxEddRKNS_7TfTokenEPNS_7GfVec3fE(double noundef %0, double noundef %1, ptr noundef nonnull align 8 dereferenceable(8) %2, ptr noundef nonnull %6)
  br i1 %9, label %10, label %50

10:                                               ; preds = %5
  %11 = load float, ptr %6, align 4
  %12 = fneg float %11
  %13 = getelementptr inbounds i8, ptr %6, i64 4
  %14 = load float, ptr %13, align 4
  %15 = fneg float %14
  %16 = getelementptr inbounds i8, ptr %6, i64 8
  %17 = load float, ptr %16, align 4
  %18 = fneg float %17
  %19 = fpext float %12 to double
  %20 = fpext float %15 to double
  %21 = fpext float %18 to double
  %22 = fpext float %11 to double
  %23 = fpext float %14 to double
  %24 = fpext float %17 to double
  %25 = getelementptr inbounds i8, ptr %7, i64 16
  %26 = getelementptr inbounds i8, ptr %7, i64 8
  %27 = getelementptr inbounds nuw i8, ptr %7, i64 24
  %28 = getelementptr inbounds i8, ptr %7, i64 40
  %29 = getelementptr inbounds i8, ptr %7, i64 32
  store double %19, ptr %7, align 8
  store double %20, ptr %26, align 8
  store double %21, ptr %25, align 8
  store double %22, ptr %27, align 8
  store double %23, ptr %29, align 8
  store double %24, ptr %28, align 8
  call void @_ZN32pxrInternal_v0_24__pxrReserved__8GfBBox3d12_SetMatricesERKNS_10GfMatrix4dE(ptr noundef nonnull align 8 dereferenceable(306) %7, ptr noundef nonnull align 8 dereferenceable(128) %3)
  %30 = getelementptr inbounds nuw i8, ptr %7, i64 305
  store i8 0, ptr %30, align 1
  call void @_ZNK32pxrInternal_v0_24__pxrReserved__8GfBBox3d19ComputeAlignedRangeEv(ptr dead_on_unwind nonnull writable sret(%"class.pxrInternal_v0_24__pxrReserved__::GfRange3d") align 8 %8, ptr noundef nonnull align 8 dereferenceable(306) %7)
  %31 = load double, ptr %8, align 8
  %32 = fptrunc double %31 to float
  %33 = getelementptr inbounds i8, ptr %8, i64 8
  %34 = load double, ptr %33, align 8
  %35 = fptrunc double %34 to float
  %36 = getelementptr inbounds i8, ptr %8, i64 16
  %37 = load double, ptr %36, align 8
  %38 = fptrunc double %37 to float
  %39 = call noundef nonnull align 4 dereferenceable(12) ptr @_ZN32pxrInternal_v0_24__pxrReserved__7VtArrayINS_7GfVec3fEEixEm(ptr noundef nonnull align 8 dereferenceable(40) %4, i64 noundef 0)
  store float %32, ptr %39, align 4
  %.sroa.210.0..sroa_idx = getelementptr inbounds i8, ptr %39, i64 4
  store float %35, ptr %.sroa.210.0..sroa_idx, align 4
  %.sroa.311.0..sroa_idx = getelementptr inbounds i8, ptr %39, i64 8
  store float %38, ptr %.sroa.311.0..sroa_idx, align 4
  %40 = getelementptr inbounds nuw i8, ptr %8, i64 24
  %41 = load double, ptr %40, align 8
  %42 = fptrunc double %41 to float
  %43 = getelementptr inbounds i8, ptr %8, i64 32
  %44 = load double, ptr %43, align 8
  %45 = fptrunc double %44 to float
  %46 = getelementptr inbounds i8, ptr %8, i64 40
  %47 = load double, ptr %46, align 8
  %48 = fptrunc double %47 to float
  %49 = call noundef nonnull align 4 dereferenceable(12) ptr @_ZN32pxrInternal_v0_24__pxrReserved__7VtArrayINS_7GfVec3fEEixEm(ptr noundef nonnull align 8 dereferenceable(40) %4, i64 noundef 1)
  store float %42, ptr %49, align 4
  %.sroa.2.0..sroa_idx8 = getelementptr inbounds i8, ptr %49, i64 4
  store float %45, ptr %.sroa.2.0..sroa_idx8, align 4
  %.sroa.3.0..sroa_idx = getelementptr inbounds i8, ptr %49, i64 8
  store float %48, ptr %.sroa.3.0..sroa_idx, align 4
  br label %50

50:                                               ; preds = %5, %10
  ret i1 %9
}